; Function Attrs: nounwind uwtable
define ptr @zend_std_get_properties(ptr noundef %0) #0 {
  %2 = getelementptr inbounds i8, ptr %0, i64 32
  %3 = load ptr, ptr %2, align 8
  %.not = icmp eq ptr %3, null
  br i1 %.not, label %4, label %5

4:                                                ; preds = %1
  tail call void @rebuild_object_properties(ptr noundef nonnull %0)
  %.pre = load ptr, ptr %2, align 8
  br label %5

5:                                                ; preds = %4, %1
  %6 = phi ptr [ %.pre, %4 ], [ %3, %1 ]
  ret ptr %6
}